; Function Attrs: mustprogress uwtable
define hidden void @_ZNK2cv8tracking4impl14TrackerKCFImpl9shiftColsERNS_3MatEi(ptr noundef nonnull readnone align 8 captures(none) dereferenceable(3680) %0, ptr noundef nonnull align 8 dereferenceable(96) %1, i32 noundef %2) local_unnamed_addr #3 align 2 personality ptr @__gxx_personality_v0 {
  %4 = alloca %"class.cv::_InputArray", align 8
  %5 = alloca %"class.cv::_OutputArray", align 8
  %6 = alloca %"class.cv::_InputArray", align 8
  %7 = alloca %"class.cv::_OutputArray", align 8
  %8 = alloca %"class.cv::_InputArray", align 8
  %9 = alloca %"class.cv::_OutputArray", align 8
  %10 = alloca %"class.cv::_InputArray", align 8
  %11 = alloca %"class.cv::_OutputArray", align 8
  %12 = alloca %"class.cv::_InputArray", align 8
  %13 = alloca %"class.cv::_OutputArray", align 8
  %14 = alloca %"class.cv::_InputArray", align 8
  %15 = alloca %"class.cv::_OutputArray", align 8
  %16 = icmp slt i32 %2, 0
  br i1 %16, label %17, label %39

17:                                               ; preds = %3
  %18 = sub nsw i32 0, %2
  call void @llvm.lifetime.start.p0(i64 24, ptr nonnull %4) #28
  %19 = getelementptr inbounds nuw i8, ptr %4, i64 16
  store i32 0, ptr %19, align 8, !tbaa !88
  %20 = getelementptr inbounds nuw i8, ptr %4, i64 20
  store i32 0, ptr %20, align 4, !tbaa !89
  store i32 16842752, ptr %4, align 8, !tbaa !73
  %21 = getelementptr inbounds nuw i8, ptr %4, i64 8
  store ptr %1, ptr %21, align 8, !tbaa !76
  call void @llvm.lifetime.start.p0(i64 24, ptr nonnull %5) #28
  %22 = getelementptr inbounds nuw i8, ptr %5, i64 8
  %23 = getelementptr inbounds nuw i8, ptr %5, i64 16
  store i64 0, ptr %23, align 8
  store i32 33619968, ptr %5, align 8, !tbaa !73
  store ptr %1, ptr %22, align 8, !tbaa !76
  call void @_ZN2cv4flipERKNS_11_InputArrayERKNS_12_OutputArrayEi(ptr noundef nonnull align 8 dereferenceable(24) %4, ptr noundef nonnull align 8 dereferenceable(24) %5, i32 noundef 1)
  call void @llvm.lifetime.end.p0(i64 24, ptr nonnull %5) #28
  call void @llvm.lifetime.end.p0(i64 24, ptr nonnull %4) #28
  call void @llvm.lifetime.start.p0(i64 24, ptr nonnull %6) #28
  %24 = getelementptr inbounds nuw i8, ptr %6, i64 16
  store i32 0, ptr %24, align 8, !tbaa !88
  %25 = getelementptr inbounds nuw i8, ptr %6, i64 20
  store i32 0, ptr %25, align 4, !tbaa !89
  store i32 16842752, ptr %6, align 8, !tbaa !73
  %26 = getelementptr inbounds nuw i8, ptr %6, i64 8
  store ptr %1, ptr %26, align 8, !tbaa !76
  call void @llvm.lifetime.start.p0(i64 24, ptr nonnull %7) #28
  %27 = getelementptr inbounds nuw i8, ptr %7, i64 8
  %28 = getelementptr inbounds nuw i8, ptr %7, i64 16
  store i64 0, ptr %28, align 8
  store i32 33619968, ptr %7, align 8, !tbaa !73
  store ptr %1, ptr %27, align 8, !tbaa !76
  call void @_ZN2cv9transposeERKNS_11_InputArrayERKNS_12_OutputArrayE(ptr noundef nonnull align 8 dereferenceable(24) %6, ptr noundef nonnull align 8 dereferenceable(24) %7)
  call void @llvm.lifetime.end.p0(i64 24, ptr nonnull %7) #28
  call void @llvm.lifetime.end.p0(i64 24, ptr nonnull %6) #28
  call void @_ZNK2cv8tracking4impl14TrackerKCFImpl9shiftRowsERNS_3MatEi(ptr noundef nonnull align 8 dereferenceable(3680) %0, ptr noundef nonnull align 8 dereferenceable(96) %1, i32 noundef %18)
  call void @llvm.lifetime.start.p0(i64 24, ptr nonnull %8) #28
  %29 = getelementptr inbounds nuw i8, ptr %8, i64 16
  store i32 0, ptr %29, align 8, !tbaa !88
  %30 = getelementptr inbounds nuw i8, ptr %8, i64 20
  store i32 0, ptr %30, align 4, !tbaa !89
  store i32 16842752, ptr %8, align 8, !tbaa !73
  %31 = getelementptr inbounds nuw i8, ptr %8, i64 8
  store ptr %1, ptr %31, align 8, !tbaa !76
  call void @llvm.lifetime.start.p0(i64 24, ptr nonnull %9) #28
  %32 = getelementptr inbounds nuw i8, ptr %9, i64 8
  %33 = getelementptr inbounds nuw i8, ptr %9, i64 16
  store i64 0, ptr %33, align 8
  store i32 33619968, ptr %9, align 8, !tbaa !73
  store ptr %1, ptr %32, align 8, !tbaa !76
  call void @_ZN2cv9transposeERKNS_11_InputArrayERKNS_12_OutputArrayE(ptr noundef nonnull align 8 dereferenceable(24) %8, ptr noundef nonnull align 8 dereferenceable(24) %9)
  call void @llvm.lifetime.end.p0(i64 24, ptr nonnull %9) #28
  call void @llvm.lifetime.end.p0(i64 24, ptr nonnull %8) #28
  call void @llvm.lifetime.start.p0(i64 24, ptr nonnull %10) #28
  %34 = getelementptr inbounds nuw i8, ptr %10, i64 16
  store i32 0, ptr %34, align 8, !tbaa !88
  %35 = getelementptr inbounds nuw i8, ptr %10, i64 20
  store i32 0, ptr %35, align 4, !tbaa !89
  store i32 16842752, ptr %10, align 8, !tbaa !73
  %36 = getelementptr inbounds nuw i8, ptr %10, i64 8
  store ptr %1, ptr %36, align 8, !tbaa !76
  call void @llvm.lifetime.start.p0(i64 24, ptr nonnull %11) #28
  %37 = getelementptr inbounds nuw i8, ptr %11, i64 8
  %38 = getelementptr inbounds nuw i8, ptr %11, i64 16
  store i64 0, ptr %38, align 8
  store i32 33619968, ptr %11, align 8, !tbaa !73
  store ptr %1, ptr %37, align 8, !tbaa !76
  call void @_ZN2cv4flipERKNS_11_InputArrayERKNS_12_OutputArrayEi(ptr noundef nonnull align 8 dereferenceable(24) %10, ptr noundef nonnull align 8 dereferenceable(24) %11, i32 noundef 1)
  call void @llvm.lifetime.end.p0(i64 24, ptr nonnull %11) #28
  call void @llvm.lifetime.end.p0(i64 24, ptr nonnull %10) #28
  br label %50

39:                                               ; preds = %3
  call void @llvm.lifetime.start.p0(i64 24, ptr nonnull %12) #28
  %40 = getelementptr inbounds nuw i8, ptr %12, i64 16
  store i32 0, ptr %40, align 8, !tbaa !88
  %41 = getelementptr inbounds nuw i8, ptr %12, i64 20
  store i32 0, ptr %41, align 4, !tbaa !89
  store i32 16842752, ptr %12, align 8, !tbaa !73
  %42 = getelementptr inbounds nuw i8, ptr %12, i64 8
  store ptr %1, ptr %42, align 8, !tbaa !76
  call void @llvm.lifetime.start.p0(i64 24, ptr nonnull %13) #28
  %43 = getelementptr inbounds nuw i8, ptr %13, i64 8
  %44 = getelementptr inbounds nuw i8, ptr %13, i64 16
  store i64 0, ptr %44, align 8
  store i32 33619968, ptr %13, align 8, !tbaa !73
  store ptr %1, ptr %43, align 8, !tbaa !76
  call void @_ZN2cv9transposeERKNS_11_InputArrayERKNS_12_OutputArrayE(ptr noundef nonnull align 8 dereferenceable(24) %12, ptr noundef nonnull align 8 dereferenceable(24) %13)
  call void @llvm.lifetime.end.p0(i64 24, ptr nonnull %13) #28
  call void @llvm.lifetime.end.p0(i64 24, ptr nonnull %12) #28
  call void @_ZNK2cv8tracking4impl14TrackerKCFImpl9shiftRowsERNS_3MatEi(ptr noundef nonnull align 8 dereferenceable(3680) %0, ptr noundef nonnull align 8 dereferenceable(96) %1, i32 noundef %2)
  call void @llvm.lifetime.start.p0(i64 24, ptr nonnull %14) #28
  %45 = getelementptr inbounds nuw i8, ptr %14, i64 16
  store i32 0, ptr %45, align 8, !tbaa !88
  %46 = getelementptr inbounds nuw i8, ptr %14, i64 20
  store i32 0, ptr %46, align 4, !tbaa !89
  store i32 16842752, ptr %14, align 8, !tbaa !73
  %47 = getelementptr inbounds nuw i8, ptr %14, i64 8
  store ptr %1, ptr %47, align 8, !tbaa !76
  call void @llvm.lifetime.start.p0(i64 24, ptr nonnull %15) #28
  %48 = getelementptr inbounds nuw i8, ptr %15, i64 8
  %49 = getelementptr inbounds nuw i8, ptr %15, i64 16
  store i64 0, ptr %49, align 8
  store i32 33619968, ptr %15, align 8, !tbaa !73
  store ptr %1, ptr %48, align 8, !tbaa !76
  call void @_ZN2cv9transposeERKNS_11_InputArrayERKNS_12_OutputArrayE(ptr noundef nonnull align 8 dereferenceable(24) %14, ptr noundef nonnull align 8 dereferenceable(24) %15)
  call void @llvm.lifetime.end.p0(i64 24, ptr nonnull %15) #28
  call void @llvm.lifetime.end.p0(i64 24, ptr nonnull %14) #28
  br label %50

50:                                               ; preds = %39, %17
  ret void
}